; Function Attrs: mustprogress uwtable
define hidden noundef i32 @hb_color_line_get_color_stops(ptr noundef %0, i32 noundef %1, ptr noundef %2, ptr noundef %3) local_unnamed_addr #0 {
  %5 = getelementptr inbounds i8, ptr %0, i64 8
  %6 = load ptr, ptr %5, align 8
  %7 = load ptr, ptr %0, align 8
  %8 = getelementptr inbounds i8, ptr %0, i64 16
  %9 = load ptr, ptr %8, align 8
  %10 = tail call noundef i32 %6(ptr noundef nonnull %0, ptr noundef %7, i32 noundef %1, ptr noundef %2, ptr noundef %3, ptr noundef %9)
  ret i32 %10
}